target datalayout = "e-m:e-p270:32:32-p271:32:32-p272:64:64-i64:64-i128:128-f80:128-n8:16:32:64-S128"
target triple = "x86_64-pc-linux-gnu"

@isEvictionProcRunning = internal global i32 0, align 4

; Function Attrs: nounwind uwtable
define internal i32 @evictionTimeProc(ptr noundef %0, i64 noundef %1, ptr noundef %2) #0 {
  %4 = alloca i32, align 4
  %5 = alloca ptr, align 8
  %6 = alloca i64, align 8
  %7 = alloca ptr, align 8
  store ptr %0, ptr %5, align 8, !tbaa !85
  store i64 %1, ptr %6, align 8, !tbaa !42
  store ptr %2, ptr %7, align 8, !tbaa !86
  %8 = call i32 @performEvictions()
  %9 = icmp eq i32 %8, 1
  br i1 %9, label %10, label %11

10:                                               ; preds = %3
  store i32 0, ptr %4, align 4
  br label %12

11:                                               ; preds = %3
  store i32 0, ptr @isEvictionProcRunning, align 4, !tbaa !39
  store i32 -1, ptr %4, align 4
  br label %12

12:                                               ; preds = %11, %10
  %13 = load i32, ptr %4, align 4
  ret i32 %13
}