; Function Attrs: nounwind uwtable
define internal range(i32 -1, 1) i32 @evictionTimeProc(ptr readnone captures(none) %0, i64 %1, ptr readnone captures(none) %2) #0 {
  %4 = tail call i32 @performEvictions()
  %5 = icmp eq i32 %4, 1
  br i1 %5, label %7, label %6

6:                                                ; preds = %3
  store i1 false, ptr @isEvictionProcRunning, align 4
  br label %7

7:                                                ; preds = %3, %6
  %.0 = phi i32 [ -1, %6 ], [ 0, %3 ]
  ret i32 %.0
}